target datalayout = "e-m:e-p270:32:32-p271:32:32-p272:64:64-i64:64-i128:128-f80:128-n8:16:32:64-S128"
target triple = "x86_64-pc-linux-gnu"

%struct.__loadu_ps = type { <4 x float> }
%struct.__storeu_ps = type { <4 x float> }

; Function Attrs: alwaysinline nounwind uwtable
define internal <4 x float> @_mm_set1_ps(float noundef %0) #13 {
  %2 = alloca float, align 4
  %3 = alloca <4 x float>, align 16
  store float %0, ptr %2, align 4
  %4 = load float, ptr %2, align 4
  %5 = insertelement <4 x float> poison, float %4, i32 0
  %6 = load float, ptr %2, align 4
  %7 = insertelement <4 x float> %5, float %6, i32 1
  %8 = load float, ptr %2, align 4
  %9 = insertelement <4 x float> %7, float %8, i32 2
  %10 = load float, ptr %2, align 4
  %11 = insertelement <4 x float> %9, float %10, i32 3
  store <4 x float> %11, ptr %3, align 16
  %12 = load <4 x float>, ptr %3, align 16
  ret <4 x float> %12
}

; Function Attrs: alwaysinline nounwind uwtable
define internal void @_mm_storeu_ps(ptr noundef %0, <4 x float> noundef %1) #13 {
  %3 = alloca ptr, align 8
  %4 = alloca <4 x float>, align 16
  store ptr %0, ptr %3, align 8
  store <4 x float> %1, ptr %4, align 16
  %5 = load <4 x float>, ptr %4, align 16
  %6 = load ptr, ptr %3, align 8
  %7 = getelementptr inbounds nuw %struct.__storeu_ps, ptr %6, i32 0, i32 0
  store <4 x float> %5, ptr %7, align 1
  ret void
}

; Function Attrs: alwaysinline nounwind uwtable
define internal <4 x float> @_mm_mul_ps(<4 x float> noundef %0, <4 x float> noundef %1) #13 {
  %3 = alloca <4 x float>, align 16
  %4 = alloca <4 x float>, align 16
  store <4 x float> %0, ptr %3, align 16
  store <4 x float> %1, ptr %4, align 16
  %5 = load <4 x float>, ptr %3, align 16
  %6 = load <4 x float>, ptr %4, align 16
  %7 = fmul <4 x float> %5, %6
  ret <4 x float> %7
}

; Function Attrs: alwaysinline nounwind uwtable
define internal <4 x float> @_mm_loadu_ps(ptr noundef %0) #13 {
  %2 = alloca ptr, align 8
  store ptr %0, ptr %2, align 8
  %3 = load ptr, ptr %2, align 8
  %4 = getelementptr inbounds nuw %struct.__loadu_ps, ptr %3, i32 0, i32 0
  %5 = load <4 x float>, ptr %4, align 1
  ret <4 x float> %5
}

; Function Attrs: alwaysinline nounwind uwtable
define internal <4 x float> @_mm_set_ps1(float noundef %0) #13 {
  %2 = alloca float, align 4
  store float %0, ptr %2, align 4
  %3 = load float, ptr %2, align 4
  %4 = call <4 x float> @_mm_set1_ps(float noundef %3)
  ret <4 x float> %4
}

; Function Attrs: nounwind uwtable
define internal void @stbir__vertical_scatter_with_2_coeffs(ptr noundef %0, ptr noundef %1, ptr noundef %2, ptr noundef %3) #12 {
  %5 = alloca ptr, align 8
  %6 = alloca ptr, align 8
  %7 = alloca ptr, align 8
  %8 = alloca ptr, align 8
  %9 = alloca ptr, align 8
  %10 = alloca float, align 4
  %11 = alloca ptr, align 8
  %12 = alloca float, align 4
  %13 = alloca <4 x float>, align 16
  %14 = alloca <4 x float>, align 16
  %15 = alloca <4 x float>, align 16
  %16 = alloca <4 x float>, align 16
  %17 = alloca <4 x float>, align 16
  %18 = alloca <4 x float>, align 16
  %19 = alloca <4 x float>, align 16
  %20 = alloca <4 x float>, align 16
  %21 = alloca <4 x float>, align 16
  %22 = alloca <4 x float>, align 16
  %23 = alloca <4 x float>, align 16
  %24 = alloca <4 x float>, align 16
  %25 = alloca float, align 4
  store ptr %0, ptr %5, align 8
  store ptr %1, ptr %6, align 8
  store ptr %2, ptr %7, align 8
  store ptr %3, ptr %8, align 8
  call void @llvm.lifetime.start.p0(i64 8, ptr %9) #19
  %26 = load ptr, ptr %5, align 8
  %27 = getelementptr inbounds ptr, ptr %26, i64 0
  %28 = load ptr, ptr %27, align 8
  store ptr %28, ptr %9, align 8
  call void @llvm.lifetime.start.p0(i64 4, ptr %10) #19
  %29 = load ptr, ptr %6, align 8
  %30 = getelementptr inbounds float, ptr %29, i64 0
  %31 = load float, ptr %30, align 4
  store float %31, ptr %10, align 4
  call void @llvm.lifetime.start.p0(i64 8, ptr %11) #19
  %32 = load ptr, ptr %5, align 8
  %33 = getelementptr inbounds ptr, ptr %32, i64 1
  %34 = load ptr, ptr %33, align 8
  store ptr %34, ptr %11, align 8
  call void @llvm.lifetime.start.p0(i64 4, ptr %12) #19
  %35 = load ptr, ptr %6, align 8
  %36 = getelementptr inbounds float, ptr %35, i64 1
  %37 = load float, ptr %36, align 4
  store float %37, ptr %12, align 4
  call void @llvm.lifetime.start.p0(i64 16, ptr %13) #19
  %38 = load float, ptr %10, align 4
  %39 = call <4 x float> @_mm_set_ps1(float noundef %38)
  store <4 x float> %39, ptr %13, align 16
  call void @llvm.lifetime.start.p0(i64 16, ptr %14) #19
  %40 = load float, ptr %12, align 4
  %41 = call <4 x float> @_mm_set_ps1(float noundef %40)
  store <4 x float> %41, ptr %14, align 16
  br label %42

42:                                               ; preds = %49, %4
  %43 = load ptr, ptr %8, align 8
  %44 = load ptr, ptr %7, align 8
  %45 = ptrtoint ptr %43 to i64
  %46 = ptrtoint ptr %44 to i64
  %47 = sub i64 %45, %46
  %48 = icmp sge i64 %47, 64
  br i1 %48, label %49, label %114

49:                                               ; preds = %42
  call void @llvm.lifetime.start.p0(i64 16, ptr %15) #19
  call void @llvm.lifetime.start.p0(i64 16, ptr %16) #19
  call void @llvm.lifetime.start.p0(i64 16, ptr %17) #19
  call void @llvm.lifetime.start.p0(i64 16, ptr %18) #19
  call void @llvm.lifetime.start.p0(i64 16, ptr %19) #19
  call void @llvm.lifetime.start.p0(i64 16, ptr %20) #19
  call void @llvm.lifetime.start.p0(i64 16, ptr %21) #19
  call void @llvm.lifetime.start.p0(i64 16, ptr %22) #19
  %50 = load ptr, ptr %9, align 8
  call void asm sideeffect "", "r,~{dirflag},~{fpsr},~{flags}"(ptr %50) #19, !srcloc !768
  %51 = load ptr, ptr %7, align 8
  %52 = call <4 x float> @_mm_loadu_ps(ptr noundef %51)
  store <4 x float> %52, ptr %19, align 16
  %53 = load ptr, ptr %7, align 8
  %54 = getelementptr inbounds float, ptr %53, i64 4
  %55 = call <4 x float> @_mm_loadu_ps(ptr noundef %54)
  store <4 x float> %55, ptr %20, align 16
  %56 = load ptr, ptr %7, align 8
  %57 = getelementptr inbounds float, ptr %56, i64 8
  %58 = call <4 x float> @_mm_loadu_ps(ptr noundef %57)
  store <4 x float> %58, ptr %21, align 16
  %59 = load ptr, ptr %7, align 8
  %60 = getelementptr inbounds float, ptr %59, i64 12
  %61 = call <4 x float> @_mm_loadu_ps(ptr noundef %60)
  store <4 x float> %61, ptr %22, align 16
  %62 = load <4 x float>, ptr %19, align 16
  %63 = load <4 x float>, ptr %13, align 16
  %64 = call <4 x float> @_mm_mul_ps(<4 x float> noundef %62, <4 x float> noundef %63)
  store <4 x float> %64, ptr %15, align 16
  %65 = load <4 x float>, ptr %20, align 16
  %66 = load <4 x float>, ptr %13, align 16
  %67 = call <4 x float> @_mm_mul_ps(<4 x float> noundef %65, <4 x float> noundef %66)
  store <4 x float> %67, ptr %16, align 16
  %68 = load <4 x float>, ptr %21, align 16
  %69 = load <4 x float>, ptr %13, align 16
  %70 = call <4 x float> @_mm_mul_ps(<4 x float> noundef %68, <4 x float> noundef %69)
  store <4 x float> %70, ptr %17, align 16
  %71 = load <4 x float>, ptr %22, align 16
  %72 = load <4 x float>, ptr %13, align 16
  %73 = call <4 x float> @_mm_mul_ps(<4 x float> noundef %71, <4 x float> noundef %72)
  store <4 x float> %73, ptr %18, align 16
  %74 = load ptr, ptr %9, align 8
  %75 = load <4 x float>, ptr %15, align 16
  call void @_mm_storeu_ps(ptr noundef %74, <4 x float> noundef %75)
  %76 = load ptr, ptr %9, align 8
  %77 = getelementptr inbounds float, ptr %76, i64 4
  %78 = load <4 x float>, ptr %16, align 16
  call void @_mm_storeu_ps(ptr noundef %77, <4 x float> noundef %78)
  %79 = load ptr, ptr %9, align 8
  %80 = getelementptr inbounds float, ptr %79, i64 8
  %81 = load <4 x float>, ptr %17, align 16
  call void @_mm_storeu_ps(ptr noundef %80, <4 x float> noundef %81)
  %82 = load ptr, ptr %9, align 8
  %83 = getelementptr inbounds float, ptr %82, i64 12
  %84 = load <4 x float>, ptr %18, align 16
  call void @_mm_storeu_ps(ptr noundef %83, <4 x float> noundef %84)
  %85 = load <4 x float>, ptr %19, align 16
  %86 = load <4 x float>, ptr %14, align 16
  %87 = call <4 x float> @_mm_mul_ps(<4 x float> noundef %85, <4 x float> noundef %86)
  store <4 x float> %87, ptr %15, align 16
  %88 = load <4 x float>, ptr %20, align 16
  %89 = load <4 x float>, ptr %14, align 16
  %90 = call <4 x float> @_mm_mul_ps(<4 x float> noundef %88, <4 x float> noundef %89)
  store <4 x float> %90, ptr %16, align 16
  %91 = load <4 x float>, ptr %21, align 16
  %92 = load <4 x float>, ptr %14, align 16
  %93 = call <4 x float> @_mm_mul_ps(<4 x float> noundef %91, <4 x float> noundef %92)
  store <4 x float> %93, ptr %17, align 16
  %94 = load <4 x float>, ptr %22, align 16
  %95 = load <4 x float>, ptr %14, align 16
  %96 = call <4 x float> @_mm_mul_ps(<4 x float> noundef %94, <4 x float> noundef %95)
  store <4 x float> %96, ptr %18, align 16
  %97 = load ptr, ptr %11, align 8
  %98 = load <4 x float>, ptr %15, align 16
  call void @_mm_storeu_ps(ptr noundef %97, <4 x float> noundef %98)
  %99 = load ptr, ptr %11, align 8
  %100 = getelementptr inbounds float, ptr %99, i64 4
  %101 = load <4 x float>, ptr %16, align 16
  call void @_mm_storeu_ps(ptr noundef %100, <4 x float> noundef %101)
  %102 = load ptr, ptr %11, align 8
  %103 = getelementptr inbounds float, ptr %102, i64 8
  %104 = load <4 x float>, ptr %17, align 16
  call void @_mm_storeu_ps(ptr noundef %103, <4 x float> noundef %104)
  %105 = load ptr, ptr %11, align 8
  %106 = getelementptr inbounds float, ptr %105, i64 12
  %107 = load <4 x float>, ptr %18, align 16
  call void @_mm_storeu_ps(ptr noundef %106, <4 x float> noundef %107)
  %108 = load ptr, ptr %7, align 8
  %109 = getelementptr inbounds float, ptr %108, i64 16
  store ptr %109, ptr %7, align 8
  %110 = load ptr, ptr %9, align 8
  %111 = getelementptr inbounds float, ptr %110, i64 16
  store ptr %111, ptr %9, align 8
  %112 = load ptr, ptr %11, align 8
  %113 = getelementptr inbounds float, ptr %112, i64 16
  store ptr %113, ptr %11, align 8
  call void @llvm.lifetime.end.p0(i64 16, ptr %22) #19
  call void @llvm.lifetime.end.p0(i64 16, ptr %21) #19
  call void @llvm.lifetime.end.p0(i64 16, ptr %20) #19
  call void @llvm.lifetime.end.p0(i64 16, ptr %19) #19
  call void @llvm.lifetime.end.p0(i64 16, ptr %18) #19
  call void @llvm.lifetime.end.p0(i64 16, ptr %17) #19
  call void @llvm.lifetime.end.p0(i64 16, ptr %16) #19
  call void @llvm.lifetime.end.p0(i64 16, ptr %15) #19
  br label %42, !llvm.loop !769

114:                                              ; preds = %42
  br label %115

115:                                              ; preds = %122, %114
  %116 = load ptr, ptr %8, align 8
  %117 = load ptr, ptr %7, align 8
  %118 = ptrtoint ptr %116 to i64
  %119 = ptrtoint ptr %117 to i64
  %120 = sub i64 %118, %119
  %121 = icmp sge i64 %120, 16
  br i1 %121, label %122, label %142

122:                                              ; preds = %115
  call void @llvm.lifetime.start.p0(i64 16, ptr %23) #19
  call void @llvm.lifetime.start.p0(i64 16, ptr %24) #19
  %123 = load ptr, ptr %9, align 8
  call void asm sideeffect "", "r,~{dirflag},~{fpsr},~{flags}"(ptr %123) #19, !srcloc !770
  %124 = load ptr, ptr %7, align 8
  %125 = call <4 x float> @_mm_loadu_ps(ptr noundef %124)
  store <4 x float> %125, ptr %24, align 16
  %126 = load <4 x float>, ptr %24, align 16
  %127 = load <4 x float>, ptr %13, align 16
  %128 = call <4 x float> @_mm_mul_ps(<4 x float> noundef %126, <4 x float> noundef %127)
  store <4 x float> %128, ptr %23, align 16
  %129 = load ptr, ptr %9, align 8
  %130 = load <4 x float>, ptr %23, align 16
  call void @_mm_storeu_ps(ptr noundef %129, <4 x float> noundef %130)
  %131 = load <4 x float>, ptr %24, align 16
  %132 = load <4 x float>, ptr %14, align 16
  %133 = call <4 x float> @_mm_mul_ps(<4 x float> noundef %131, <4 x float> noundef %132)
  store <4 x float> %133, ptr %23, align 16
  %134 = load ptr, ptr %11, align 8
  %135 = load <4 x float>, ptr %23, align 16
  call void @_mm_storeu_ps(ptr noundef %134, <4 x float> noundef %135)
  %136 = load ptr, ptr %7, align 8
  %137 = getelementptr inbounds float, ptr %136, i64 4
  store ptr %137, ptr %7, align 8
  %138 = load ptr, ptr %9, align 8
  %139 = getelementptr inbounds float, ptr %138, i64 4
  store ptr %139, ptr %9, align 8
  %140 = load ptr, ptr %11, align 8
  %141 = getelementptr inbounds float, ptr %140, i64 4
  store ptr %141, ptr %11, align 8
  call void @llvm.lifetime.end.p0(i64 16, ptr %24) #19
  call void @llvm.lifetime.end.p0(i64 16, ptr %23) #19
  br label %115, !llvm.loop !771

142:                                              ; preds = %115
  call void @llvm.lifetime.end.p0(i64 16, ptr %14) #19
  call void @llvm.lifetime.end.p0(i64 16, ptr %13) #19
  br label %143

143:                                              ; preds = %147, %142
  %144 = load ptr, ptr %7, align 8
  %145 = load ptr, ptr %8, align 8
  %146 = icmp ult ptr %144, %145
  br i1 %146, label %147, label %168

147:                                              ; preds = %143
  call void @llvm.lifetime.start.p0(i64 4, ptr %25) #19
  %148 = load ptr, ptr %7, align 8
  %149 = getelementptr inbounds float, ptr %148, i64 0
  %150 = load float, ptr %149, align 4
  store float %150, ptr %25, align 4
  %151 = load ptr, ptr %9, align 8
  call void asm sideeffect "", "r,~{dirflag},~{fpsr},~{flags}"(ptr %151) #19, !srcloc !772
  %152 = load float, ptr %25, align 4
  %153 = load float, ptr %10, align 4
  %154 = fmul float %152, %153
  %155 = load ptr, ptr %9, align 8
  %156 = getelementptr inbounds float, ptr %155, i64 0
  store float %154, ptr %156, align 4
  %157 = load float, ptr %25, align 4
  %158 = load float, ptr %12, align 4
  %159 = fmul float %157, %158
  %160 = load ptr, ptr %11, align 8
  %161 = getelementptr inbounds float, ptr %160, i64 0
  store float %159, ptr %161, align 4
  %162 = load ptr, ptr %7, align 8
  %163 = getelementptr inbounds nuw float, ptr %162, i32 1
  store ptr %163, ptr %7, align 8
  %164 = load ptr, ptr %9, align 8
  %165 = getelementptr inbounds nuw float, ptr %164, i32 1
  store ptr %165, ptr %9, align 8
  %166 = load ptr, ptr %11, align 8
  %167 = getelementptr inbounds nuw float, ptr %166, i32 1
  store ptr %167, ptr %11, align 8
  call void @llvm.lifetime.end.p0(i64 4, ptr %25) #19
  br label %143, !llvm.loop !773

168:                                              ; preds = %143
  call void @llvm.lifetime.end.p0(i64 4, ptr %12) #19
  call void @llvm.lifetime.end.p0(i64 8, ptr %11) #19
  call void @llvm.lifetime.end.p0(i64 4, ptr %10) #19
  call void @llvm.lifetime.end.p0(i64 8, ptr %9) #19
  ret void
}