; Function Attrs: nounwind uwtable
define internal void @stbir__vertical_scatter_with_2_coeffs(ptr noundef readonly captures(none) %0, ptr noundef readonly captures(none) %1, ptr noundef %2, ptr noundef %3) #22 {
  %5 = load ptr, ptr %0, align 8
  %6 = load float, ptr %1, align 4
  %7 = getelementptr inbounds nuw i8, ptr %0, i64 8
  %8 = load ptr, ptr %7, align 8
  %9 = getelementptr inbounds nuw i8, ptr %1, i64 4
  %10 = load float, ptr %9, align 4
  %11 = insertelement <4 x float> poison, float %6, i64 0
  %12 = shufflevector <4 x float> %11, <4 x float> poison, <4 x i32> zeroinitializer
  %13 = insertelement <4 x float> poison, float %10, i64 0
  %14 = shufflevector <4 x float> %13, <4 x float> poison, <4 x i32> zeroinitializer
  %15 = ptrtoint ptr %3 to i64
  %16 = ptrtoint ptr %2 to i64
  %17 = sub i64 %15, %16
  %18 = icmp sgt i64 %17, 63
  br i1 %18, label %.lr.ph, label %.preheader81

.preheader81:                                     ; preds = %.lr.ph, %4
  %.pre-phi104 = phi i64 [ %17, %4 ], [ %45, %.lr.ph ]
  %.078.lcssa = phi ptr [ %8, %4 ], [ %43, %.lr.ph ]
  %.075.lcssa = phi ptr [ %5, %4 ], [ %42, %.lr.ph ]
  %.0.lcssa = phi ptr [ %2, %4 ], [ %41, %.lr.ph ]
  %19 = icmp sgt i64 %.pre-phi104, 15
  br i1 %19, label %.lr.ph91, label %.preheader

.lr.ph:                                           ; preds = %4, %.lr.ph
  %.084 = phi ptr [ %41, %.lr.ph ], [ %2, %4 ]
  %.07583 = phi ptr [ %42, %.lr.ph ], [ %5, %4 ]
  %.07882 = phi ptr [ %43, %.lr.ph ], [ %8, %4 ]
  tail call void asm sideeffect "", "r,~{dirflag},~{fpsr},~{flags}"(ptr %.07583) #54, !srcloc !719
  %20 = load <4 x float>, ptr %.084, align 1
  %21 = getelementptr inbounds nuw i8, ptr %.084, i64 16
  %22 = load <4 x float>, ptr %21, align 1
  %23 = getelementptr inbounds nuw i8, ptr %.084, i64 32
  %24 = load <4 x float>, ptr %23, align 1
  %25 = getelementptr inbounds nuw i8, ptr %.084, i64 48
  %26 = load <4 x float>, ptr %25, align 1
  %27 = fmul <4 x float> %12, %20
  %28 = fmul <4 x float> %12, %22
  %29 = fmul <4 x float> %12, %24
  %30 = fmul <4 x float> %12, %26
  store <4 x float> %27, ptr %.07583, align 1
  %31 = getelementptr inbounds nuw i8, ptr %.07583, i64 16
  store <4 x float> %28, ptr %31, align 1
  %32 = getelementptr inbounds nuw i8, ptr %.07583, i64 32
  store <4 x float> %29, ptr %32, align 1
  %33 = getelementptr inbounds nuw i8, ptr %.07583, i64 48
  store <4 x float> %30, ptr %33, align 1
  %34 = fmul <4 x float> %14, %20
  %35 = fmul <4 x float> %14, %22
  %36 = fmul <4 x float> %14, %24
  %37 = fmul <4 x float> %14, %26
  store <4 x float> %34, ptr %.07882, align 1
  %38 = getelementptr inbounds nuw i8, ptr %.07882, i64 16
  store <4 x float> %35, ptr %38, align 1
  %39 = getelementptr inbounds nuw i8, ptr %.07882, i64 32
  store <4 x float> %36, ptr %39, align 1
  %40 = getelementptr inbounds nuw i8, ptr %.07882, i64 48
  store <4 x float> %37, ptr %40, align 1
  %41 = getelementptr inbounds nuw i8, ptr %.084, i64 64
  %42 = getelementptr inbounds nuw i8, ptr %.07583, i64 64
  %43 = getelementptr inbounds nuw i8, ptr %.07882, i64 64
  %44 = ptrtoint ptr %41 to i64
  %45 = sub i64 %15, %44
  %46 = icmp sgt i64 %45, 63
  br i1 %46, label %.lr.ph, label %.preheader81, !llvm.loop !720

.preheader:                                       ; preds = %.lr.ph91, %.preheader81
  %.179.lcssa = phi ptr [ %.078.lcssa, %.preheader81 ], [ %53, %.lr.ph91 ]
  %.176.lcssa = phi ptr [ %.075.lcssa, %.preheader81 ], [ %52, %.lr.ph91 ]
  %.1.lcssa = phi ptr [ %.0.lcssa, %.preheader81 ], [ %51, %.lr.ph91 ]
  %47 = icmp ult ptr %.1.lcssa, %3
  br i1 %47, label %.lr.ph98, label %._crit_edge

.lr.ph91:                                         ; preds = %.preheader81, %.lr.ph91
  %.190 = phi ptr [ %51, %.lr.ph91 ], [ %.0.lcssa, %.preheader81 ]
  %.17689 = phi ptr [ %52, %.lr.ph91 ], [ %.075.lcssa, %.preheader81 ]
  %.17988 = phi ptr [ %53, %.lr.ph91 ], [ %.078.lcssa, %.preheader81 ]
  tail call void asm sideeffect "", "r,~{dirflag},~{fpsr},~{flags}"(ptr %.17689) #54, !srcloc !721
  %48 = load <4 x float>, ptr %.190, align 1
  %49 = fmul <4 x float> %12, %48
  store <4 x float> %49, ptr %.17689, align 1
  %50 = fmul <4 x float> %14, %48
  store <4 x float> %50, ptr %.17988, align 1
  %51 = getelementptr inbounds nuw i8, ptr %.190, i64 16
  %52 = getelementptr inbounds nuw i8, ptr %.17689, i64 16
  %53 = getelementptr inbounds nuw i8, ptr %.17988, i64 16
  %54 = ptrtoint ptr %51 to i64
  %55 = sub i64 %15, %54
  %56 = icmp sgt i64 %55, 15
  br i1 %56, label %.lr.ph91, label %.preheader, !llvm.loop !722

.lr.ph98:                                         ; preds = %.preheader, %.lr.ph98
  %.297 = phi ptr [ %60, %.lr.ph98 ], [ %.1.lcssa, %.preheader ]
  %.27796 = phi ptr [ %61, %.lr.ph98 ], [ %.176.lcssa, %.preheader ]
  %.28095 = phi ptr [ %62, %.lr.ph98 ], [ %.179.lcssa, %.preheader ]
  %57 = load float, ptr %.297, align 4
  tail call void asm sideeffect "", "r,~{dirflag},~{fpsr},~{flags}"(ptr %.27796) #54, !srcloc !723
  %58 = fmul float %6, %57
  store float %58, ptr %.27796, align 4
  %59 = fmul float %10, %57
  store float %59, ptr %.28095, align 4
  %60 = getelementptr inbounds nuw i8, ptr %.297, i64 4
  %61 = getelementptr inbounds nuw i8, ptr %.27796, i64 4
  %62 = getelementptr inbounds nuw i8, ptr %.28095, i64 4
  %63 = icmp ult ptr %60, %3
  br i1 %63, label %.lr.ph98, label %._crit_edge, !llvm.loop !724

._crit_edge:                                      ; preds = %.lr.ph98, %.preheader
  ret void
}